target datalayout = "e-m:e-p270:32:32-p271:32:32-p272:64:64-i64:64-i128:128-f80:128-n8:16:32:64-S128"
target triple = "x86_64-pc-linux-gnu"

%struct.Curl_ssl = type { %struct.curl_ssl_backend, i32, i64, ptr, ptr, ptr, ptr, ptr, ptr, ptr, ptr, ptr, ptr, ptr, ptr, ptr, ptr, ptr, ptr, ptr, ptr, ptr, ptr, ptr, ptr, ptr, ptr, ptr }
%struct.curl_ssl_backend = type { i32, ptr }
%struct.Curl_cftype = type { ptr, i32, i32, ptr, ptr, ptr, ptr, ptr, ptr, ptr, ptr, ptr, ptr, ptr, ptr }
%struct.curltime = type { i64, i32 }
%struct.Curl_cfilter = type { ptr, ptr, ptr, ptr, i32, i8 }
%struct.ssl_connect_data = type { i32, i32, %struct.ssl_peer, ptr, ptr, %struct.cf_call_data, %struct.curltime, i32, i8 }
%struct.ssl_peer = type { ptr, ptr, ptr, i8 }
%struct.cf_call_data = type { ptr }

@Curl_ssl = dso_local global ptr @Curl_ssl_openssl, align 8

; Function Attrs: nounwind uwtable
define internal zeroext i1 @cf_ssl_is_alive(ptr noundef %0, ptr noundef %1, ptr noundef %2) #0 {
  %4 = alloca i1, align 1
  %5 = alloca ptr, align 8
  %6 = alloca ptr, align 8
  %7 = alloca ptr, align 8
  %8 = alloca %struct.cf_call_data, align 8
  %9 = alloca i32, align 4
  store ptr %0, ptr %5, align 8
  store ptr %1, ptr %6, align 8
  store ptr %2, ptr %7, align 8
  br label %10

10:                                               ; preds = %3
  %11 = load ptr, ptr %5, align 8
  %12 = getelementptr inbounds %struct.Curl_cfilter, ptr %11, i32 0, i32 2
  %13 = load ptr, ptr %12, align 8
  %14 = getelementptr inbounds %struct.ssl_connect_data, ptr %13, i32 0, i32 5
  call void @llvm.memcpy.p0.p0.i64(ptr align 8 %8, ptr align 8 %14, i64 8, i1 false)
  %15 = load ptr, ptr %6, align 8
  %16 = load ptr, ptr %5, align 8
  %17 = getelementptr inbounds %struct.Curl_cfilter, ptr %16, i32 0, i32 2
  %18 = load ptr, ptr %17, align 8
  %19 = getelementptr inbounds %struct.ssl_connect_data, ptr %18, i32 0, i32 5
  %20 = getelementptr inbounds %struct.cf_call_data, ptr %19, i32 0, i32 0
  store ptr %15, ptr %20, align 8
  br label %21

21:                                               ; preds = %10
  %22 = load ptr, ptr @Curl_ssl, align 8
  %23 = getelementptr inbounds %struct.Curl_ssl, ptr %22, i32 0, i32 6
  %24 = load ptr, ptr %23, align 8
  %25 = load ptr, ptr %5, align 8
  %26 = load ptr, ptr %6, align 8
  %27 = call i32 %24(ptr noundef %25, ptr noundef %26)
  store i32 %27, ptr %9, align 4
  br label %28

28:                                               ; preds = %21
  %29 = load ptr, ptr %5, align 8
  %30 = getelementptr inbounds %struct.Curl_cfilter, ptr %29, i32 0, i32 2
  %31 = load ptr, ptr %30, align 8
  %32 = getelementptr inbounds %struct.ssl_connect_data, ptr %31, i32 0, i32 5
  call void @llvm.memcpy.p0.p0.i64(ptr align 8 %32, ptr align 8 %8, i64 8, i1 false)
  br label %33

33:                                               ; preds = %28
  %34 = load i32, ptr %9, align 4
  %35 = icmp sgt i32 %34, 0
  br i1 %35, label %36, label %38

36:                                               ; preds = %33
  %37 = load ptr, ptr %7, align 8
  store i8 1, ptr %37, align 1
  store i1 true, ptr %4, align 1
  br label %67

38:                                               ; preds = %33
  %39 = load i32, ptr %9, align 4
  %40 = icmp eq i32 %39, 0
  br i1 %40, label %41, label %43

41:                                               ; preds = %38
  %42 = load ptr, ptr %7, align 8
  store i8 0, ptr %42, align 1
  store i1 false, ptr %4, align 1
  br label %67

43:                                               ; preds = %38
  %44 = load ptr, ptr %5, align 8
  %45 = getelementptr inbounds %struct.Curl_cfilter, ptr %44, i32 0, i32 1
  %46 = load ptr, ptr %45, align 8
  %47 = icmp ne ptr %46, null
  br i1 %47, label %48, label %63

48:                                               ; preds = %43
  %49 = load ptr, ptr %5, align 8
  %50 = getelementptr inbounds %struct.Curl_cfilter, ptr %49, i32 0, i32 1
  %51 = load ptr, ptr %50, align 8
  %52 = getelementptr inbounds %struct.Curl_cfilter, ptr %51, i32 0, i32 0
  %53 = load ptr, ptr %52, align 8
  %54 = getelementptr inbounds %struct.Curl_cftype, ptr %53, i32 0, i32 12
  %55 = load ptr, ptr %54, align 8
  %56 = load ptr, ptr %5, align 8
  %57 = getelementptr inbounds %struct.Curl_cfilter, ptr %56, i32 0, i32 1
  %58 = load ptr, ptr %57, align 8
  %59 = load ptr, ptr %6, align 8
  %60 = load ptr, ptr %7, align 8
  %61 = call zeroext i1 %55(ptr noundef %58, ptr noundef %59, ptr noundef %60)
  %62 = zext i1 %61 to i32
  br label %64

63:                                               ; preds = %43
  br label %64

64:                                               ; preds = %63, %48
  %65 = phi i32 [ %62, %48 ], [ 0, %63 ]
  %66 = icmp ne i32 %65, 0
  store i1 %66, ptr %4, align 1
  br label %67

67:                                               ; preds = %64, %41, %36
  %68 = load i1, ptr %4, align 1
  ret i1 %68
}