; Function Attrs: nounwind uwtable
define internal zeroext i1 @cf_ssl_is_alive(ptr noundef %0, ptr noundef %1, ptr noundef %2) #2 {
  %4 = getelementptr inbounds nuw i8, ptr %0, i64 16
  %5 = load ptr, ptr %4, align 8
  %6 = getelementptr inbounds nuw i8, ptr %5, i64 56
  %.sroa.0.0.copyload = load ptr, ptr %6, align 8
  store ptr %1, ptr %6, align 8
  %7 = load ptr, ptr @Curl_ssl, align 8
  %8 = getelementptr inbounds nuw i8, ptr %7, i64 56
  %9 = load ptr, ptr %8, align 8
  %10 = tail call i32 %9(ptr noundef %0, ptr noundef %1) #18
  %11 = load ptr, ptr %4, align 8
  %12 = getelementptr inbounds nuw i8, ptr %11, i64 56
  store ptr %.sroa.0.0.copyload, ptr %12, align 8
  %13 = icmp sgt i32 %10, 0
  br i1 %13, label %14, label %15

14:                                               ; preds = %3
  store i8 1, ptr %2, align 1
  br label %26

15:                                               ; preds = %3
  %16 = icmp eq i32 %10, 0
  br i1 %16, label %17, label %18

17:                                               ; preds = %15
  store i8 0, ptr %2, align 1
  br label %26

18:                                               ; preds = %15
  %19 = getelementptr inbounds nuw i8, ptr %0, i64 8
  %20 = load ptr, ptr %19, align 8
  %.not = icmp eq ptr %20, null
  br i1 %.not, label %26, label %21

21:                                               ; preds = %18
  %22 = load ptr, ptr %20, align 8
  %23 = getelementptr inbounds nuw i8, ptr %22, i64 88
  %24 = load ptr, ptr %23, align 8
  %25 = tail call zeroext i1 %24(ptr noundef nonnull %20, ptr noundef %1, ptr noundef %2) #18
  br label %26

26:                                               ; preds = %21, %18, %17, %14
  %.0 = phi i1 [ true, %14 ], [ false, %17 ], [ %25, %21 ], [ false, %18 ]
  ret i1 %.0
}